; Function Attrs: mustprogress uwtable
define dso_local noundef nonnull align 8 dereferenceable(120) ptr @_ZN4Luau15SubtypingResult17withBothComponentENS_7VariantIJNS_8TypePath8PropertyENS2_5IndexENS2_9TypeFieldENS2_9PackFieldENS2_9ReductionEEEE(ptr noundef nonnull returned align 8 dereferenceable(120) %0, ptr noundef %1) local_unnamed_addr #4 align 2 personality ptr @__gxx_personality_v0 {
  %3 = alloca %"class.Luau::Variant", align 8
  %4 = alloca %"class.Luau::Variant", align 8
  %5 = load i32, ptr %1, align 8, !tbaa !13
  store i32 %5, ptr %3, align 8, !tbaa !13
  %6 = sext i32 %5 to i64
  %7 = getelementptr inbounds [5 x ptr], ptr @_ZZN4Luau7VariantIJNS_8TypePath8PropertyENS1_5IndexENS1_9TypeFieldENS1_9PackFieldENS1_9ReductionEEEC1ERKS7_E5table, i64 0, i64 %6
  %8 = load ptr, ptr %7, align 8, !tbaa !15
  %9 = getelementptr inbounds nuw i8, ptr %3, i64 8
  %10 = getelementptr inbounds nuw i8, ptr %1, i64 8
  call void %8(ptr noundef nonnull %9, ptr noundef nonnull %10)
  %11 = invoke noundef nonnull align 8 dereferenceable(120) ptr @_ZN4Luau15SubtypingResult16withSubComponentENS_7VariantIJNS_8TypePath8PropertyENS2_5IndexENS2_9TypeFieldENS2_9PackFieldENS2_9ReductionEEEE(ptr noundef nonnull align 8 dereferenceable(120) %0, ptr noundef nonnull %3)
          to label %12 unwind label %34

12:                                               ; preds = %2
  %13 = load i32, ptr %1, align 8, !tbaa !13
  store i32 %13, ptr %4, align 8, !tbaa !13
  %14 = sext i32 %13 to i64
  %15 = getelementptr inbounds [5 x ptr], ptr @_ZZN4Luau7VariantIJNS_8TypePath8PropertyENS1_5IndexENS1_9TypeFieldENS1_9PackFieldENS1_9ReductionEEEC1ERKS7_E5table, i64 0, i64 %14
  %16 = load ptr, ptr %15, align 8, !tbaa !15
  %17 = getelementptr inbounds nuw i8, ptr %4, i64 8
  invoke void %16(ptr noundef nonnull %17, ptr noundef nonnull %10)
          to label %_ZN4Luau7VariantIJNS_8TypePath8PropertyENS1_5IndexENS1_9TypeFieldENS1_9PackFieldENS1_9ReductionEEEC2ERKS7_.exit unwind label %34

_ZN4Luau7VariantIJNS_8TypePath8PropertyENS1_5IndexENS1_9TypeFieldENS1_9PackFieldENS1_9ReductionEEEC2ERKS7_.exit: ; preds = %12
  %18 = invoke noundef nonnull align 8 dereferenceable(120) ptr @_ZN4Luau15SubtypingResult18withSuperComponentENS_7VariantIJNS_8TypePath8PropertyENS2_5IndexENS2_9TypeFieldENS2_9PackFieldENS2_9ReductionEEEE(ptr noundef nonnull align 8 dereferenceable(120) %0, ptr noundef nonnull %4)
          to label %19 unwind label %36

19:                                               ; preds = %_ZN4Luau7VariantIJNS_8TypePath8PropertyENS1_5IndexENS1_9TypeFieldENS1_9PackFieldENS1_9ReductionEEEC2ERKS7_.exit
  %20 = load i32, ptr %4, align 8, !tbaa !13
  %21 = sext i32 %20 to i64
  %22 = getelementptr inbounds [5 x ptr], ptr @_ZN4Luau7VariantIJNS_8TypePath8PropertyENS1_5IndexENS1_9TypeFieldENS1_9PackFieldENS1_9ReductionEEE9tableDtorE, i64 0, i64 %21
  %23 = load ptr, ptr %22, align 8, !tbaa !15
  invoke void %23(ptr noundef nonnull %17)
          to label %_ZN4Luau7VariantIJNS_8TypePath8PropertyENS1_5IndexENS1_9TypeFieldENS1_9PackFieldENS1_9ReductionEEED2Ev.exit unwind label %24

24:                                               ; preds = %19
  %25 = landingpad { ptr, i32 }
          catch ptr null
  %26 = extractvalue { ptr, i32 } %25, 0
  call void @__clang_call_terminate(ptr %26) #27
  unreachable

_ZN4Luau7VariantIJNS_8TypePath8PropertyENS1_5IndexENS1_9TypeFieldENS1_9PackFieldENS1_9ReductionEEED2Ev.exit: ; preds = %19
  %27 = load i32, ptr %3, align 8, !tbaa !13
  %28 = sext i32 %27 to i64
  %29 = getelementptr inbounds [5 x ptr], ptr @_ZN4Luau7VariantIJNS_8TypePath8PropertyENS1_5IndexENS1_9TypeFieldENS1_9PackFieldENS1_9ReductionEEE9tableDtorE, i64 0, i64 %28
  %30 = load ptr, ptr %29, align 8, !tbaa !15
  invoke void %30(ptr noundef nonnull %9)
          to label %_ZN4Luau7VariantIJNS_8TypePath8PropertyENS1_5IndexENS1_9TypeFieldENS1_9PackFieldENS1_9ReductionEEED2Ev.exit4 unwind label %31

31:                                               ; preds = %_ZN4Luau7VariantIJNS_8TypePath8PropertyENS1_5IndexENS1_9TypeFieldENS1_9PackFieldENS1_9ReductionEEED2Ev.exit
  %32 = landingpad { ptr, i32 }
          catch ptr null
  %33 = extractvalue { ptr, i32 } %32, 0
  call void @__clang_call_terminate(ptr %33) #27
  unreachable

_ZN4Luau7VariantIJNS_8TypePath8PropertyENS1_5IndexENS1_9TypeFieldENS1_9PackFieldENS1_9ReductionEEED2Ev.exit4: ; preds = %_ZN4Luau7VariantIJNS_8TypePath8PropertyENS1_5IndexENS1_9TypeFieldENS1_9PackFieldENS1_9ReductionEEED2Ev.exit
  ret ptr %0

34:                                               ; preds = %12, %2
  %35 = landingpad { ptr, i32 }
          cleanup
  br label %_ZN4Luau7VariantIJNS_8TypePath8PropertyENS1_5IndexENS1_9TypeFieldENS1_9PackFieldENS1_9ReductionEEED2Ev.exit5

36:                                               ; preds = %_ZN4Luau7VariantIJNS_8TypePath8PropertyENS1_5IndexENS1_9TypeFieldENS1_9PackFieldENS1_9ReductionEEEC2ERKS7_.exit
  %37 = landingpad { ptr, i32 }
          cleanup
  %38 = load i32, ptr %4, align 8, !tbaa !13
  %39 = sext i32 %38 to i64
  %40 = getelementptr inbounds [5 x ptr], ptr @_ZN4Luau7VariantIJNS_8TypePath8PropertyENS1_5IndexENS1_9TypeFieldENS1_9PackFieldENS1_9ReductionEEE9tableDtorE, i64 0, i64 %39
  %41 = load ptr, ptr %40, align 8, !tbaa !15
  invoke void %41(ptr noundef nonnull %17)
          to label %_ZN4Luau7VariantIJNS_8TypePath8PropertyENS1_5IndexENS1_9TypeFieldENS1_9PackFieldENS1_9ReductionEEED2Ev.exit5 unwind label %42

42:                                               ; preds = %36
  %43 = landingpad { ptr, i32 }
          catch ptr null
  %44 = extractvalue { ptr, i32 } %43, 0
  call void @__clang_call_terminate(ptr %44) #27
  unreachable

_ZN4Luau7VariantIJNS_8TypePath8PropertyENS1_5IndexENS1_9TypeFieldENS1_9PackFieldENS1_9ReductionEEED2Ev.exit5: ; preds = %36, %34
  %.pn = phi { ptr, i32 } [ %35, %34 ], [ %37, %36 ]
  %45 = load i32, ptr %3, align 8, !tbaa !13
  %46 = sext i32 %45 to i64
  %47 = getelementptr inbounds [5 x ptr], ptr @_ZN4Luau7VariantIJNS_8TypePath8PropertyENS1_5IndexENS1_9TypeFieldENS1_9PackFieldENS1_9ReductionEEE9tableDtorE, i64 0, i64 %46
  %48 = load ptr, ptr %47, align 8, !tbaa !15
  invoke void %48(ptr noundef nonnull %9)
          to label %_ZN4Luau7VariantIJNS_8TypePath8PropertyENS1_5IndexENS1_9TypeFieldENS1_9PackFieldENS1_9ReductionEEED2Ev.exit6 unwind label %49

49:                                               ; preds = %_ZN4Luau7VariantIJNS_8TypePath8PropertyENS1_5IndexENS1_9TypeFieldENS1_9PackFieldENS1_9ReductionEEED2Ev.exit5
  %50 = landingpad { ptr, i32 }
          catch ptr null
  %51 = extractvalue { ptr, i32 } %50, 0
  call void @__clang_call_terminate(ptr %51) #27
  unreachable

_ZN4Luau7VariantIJNS_8TypePath8PropertyENS1_5IndexENS1_9TypeFieldENS1_9PackFieldENS1_9ReductionEEED2Ev.exit6: ; preds = %_ZN4Luau7VariantIJNS_8TypePath8PropertyENS1_5IndexENS1_9TypeFieldENS1_9PackFieldENS1_9ReductionEEED2Ev.exit5
  resume { ptr, i32 } %.pn
}